target datalayout = "e-m:e-p270:32:32-p271:32:32-p272:64:64-i64:64-i128:128-f80:128-n8:16:32:64-S128"
target triple = "x86_64-pc-linux-gnu"

@proto_ngap = internal global i32 0, align 4
@ngap_handle = internal global ptr null, align 8
@.str.9 = private unnamed_addr constant [15 x i8] c"ngap.extension\00", align 1
@.str.10 = private unnamed_addr constant [9 x i8] c"ngap.ies\00", align 1
@.str.11 = private unnamed_addr constant [15 x i8] c"ngap.proc.imsg\00", align 1
@.str.12 = private unnamed_addr constant [15 x i8] c"ngap.proc.sout\00", align 1
@.str.13 = private unnamed_addr constant [15 x i8] c"ngap.proc.uout\00", align 1
@.str.14 = private unnamed_addr constant [16 x i8] c"ngap.n2_ie_type\00", align 1
@ngap_media_type_handle = internal global ptr null, align 8
@.str.56 = private unnamed_addr constant [5 x i8] c"ngap\00", align 1
@.str.57 = private unnamed_addr constant [5 x i8] c"NGAP\00", align 1
@.str.3455 = private unnamed_addr constant [24 x i8] c"NG Application Protocol\00", align 1
@.str.3456 = private unnamed_addr constant [16 x i8] c"ngap_media_type\00", align 1
@.str.3457 = private unnamed_addr constant [18 x i8] c"NGAP-PROTOCOL-IES\00", align 1
@ngap_ies_dissector_table = internal global ptr null, align 8
@.str.3458 = private unnamed_addr constant [20 x i8] c"ngap.ies.pair.first\00", align 1
@.str.3459 = private unnamed_addr constant [34 x i8] c"NGAP-PROTOCOL-IES-PAIR FirstValue\00", align 1
@ngap_ies_p1_dissector_table = internal global ptr null, align 8
@.str.3460 = private unnamed_addr constant [21 x i8] c"ngap.ies.pair.second\00", align 1
@.str.3461 = private unnamed_addr constant [35 x i8] c"NGAP-PROTOCOL-IES-PAIR SecondValue\00", align 1
@ngap_ies_p2_dissector_table = internal global ptr null, align 8
@.str.3462 = private unnamed_addr constant [24 x i8] c"NGAP-PROTOCOL-EXTENSION\00", align 1
@ngap_extension_dissector_table = internal global ptr null, align 8
@.str.3463 = private unnamed_addr constant [44 x i8] c"NGAP-ELEMENTARY-PROCEDURE InitiatingMessage\00", align 1
@ngap_proc_imsg_dissector_table = internal global ptr null, align 8
@.str.3464 = private unnamed_addr constant [44 x i8] c"NGAP-ELEMENTARY-PROCEDURE SuccessfulOutcome\00", align 1
@ngap_proc_sout_dissector_table = internal global ptr null, align 8
@.str.3465 = private unnamed_addr constant [46 x i8] c"NGAP-ELEMENTARY-PROCEDURE UnsuccessfulOutcome\00", align 1
@ngap_proc_uout_dissector_table = internal global ptr null, align 8
@.str.3466 = private unnamed_addr constant [16 x i8] c"NGAP N2 IE Type\00", align 1
@ngap_n2_ie_type_dissector_table = internal global ptr null, align 8
@.str.3467 = private unnamed_addr constant [18 x i8] c"dissect_container\00", align 1
@.str.3468 = private unnamed_addr constant [29 x i8] c"Dissect TransparentContainer\00", align 1
@.str.3469 = private unnamed_addr constant [54 x i8] c"Dissect TransparentContainers that are opaque to NGAP\00", align 1
@ngap_dissect_container = internal global i8 1, align 1
@.str.3470 = private unnamed_addr constant [28 x i8] c"disable_nrppa_encapsulation\00", align 1
@.str.3471 = private unnamed_addr constant [39 x i8] c"Disable encapsulation of NRPPa in NGAP\00", align 1
@.str.3472 = private unnamed_addr constant [142 x i8] c"The standard indicates that NRPPa PDU must be encapsulated in ngap.NRPPa-PDU ASN1 type. However, Huawei AMF use the NRPPa ASN1 type directly.\00", align 1
@ngap_disable_nrppa_encapsulation = internal global i8 0, align 1
@.str.3473 = private unnamed_addr constant [35 x i8] c"dissect_target_ng_ran_container_as\00", align 1
@.str.3474 = private unnamed_addr constant [35 x i8] c"Dissect target NG-RAN container as\00", align 1
@.str.3475 = private unnamed_addr constant [113 x i8] c"Select whether target NG-RAN container should be decoded automatically (based on NG Setup procedure) or manually\00", align 1
@ngap_dissect_target_ng_ran_container_as = internal global i32 0, align 4
@.str.3476 = private unnamed_addr constant [25 x i8] c"dissect_lte_container_as\00", align 1
@.str.3477 = private unnamed_addr constant [25 x i8] c"Dissect LTE container as\00", align 1
@.str.3478 = private unnamed_addr constant [73 x i8] c"Select whether LTE container should be dissected as NB-IOT or legacy LTE\00", align 1
@ngap_dissect_lte_container_as = internal global i32 0, align 4
@ngap_tap = internal global i32 0, align 4

; Function Attrs: null_pointer_is_valid sspstrong uwtable
define hidden void @proto_register_ngap() #0 {
  %1 = alloca ptr, align 8
  %2 = alloca ptr, align 8
  call void @llvm.lifetime.start.p0(i64 8, ptr %1) #11
  call void @llvm.lifetime.start.p0(i64 8, ptr %2) #11
  %3 = call i32 @proto_register_protocol(ptr noundef @.str.3455, ptr noundef @.str.57, ptr noundef @.str.56)
  store i32 %3, ptr @proto_ngap, align 4
  %4 = load i32, ptr @proto_ngap, align 4
  call void @proto_register_field_array(i32 noundef %4, ptr noundef @proto_register_ngap.hf, i32 noundef 1690)
  call void @proto_register_subtree_array(ptr noundef @proto_register_ngap.ett, i32 noundef 920)
  %5 = load i32, ptr @proto_ngap, align 4
  %6 = call ptr @expert_register_protocol(i32 noundef %5)
  store ptr %6, ptr %2, align 8
  %7 = load ptr, ptr %2, align 8
  call void @expert_register_field_array(ptr noundef %7, ptr noundef @proto_register_ngap.ei, i32 noundef 2)
  %8 = load i32, ptr @proto_ngap, align 4
  %9 = call ptr @register_dissector(ptr noundef @.str.56, ptr noundef @dissect_ngap, i32 noundef %8)
  store ptr %9, ptr @ngap_handle, align 8
  %10 = load i32, ptr @proto_ngap, align 4
  %11 = call ptr @register_dissector(ptr noundef @.str.3456, ptr noundef @dissect_ngap_media_type, i32 noundef %10)
  store ptr %11, ptr @ngap_media_type_handle, align 8
  %12 = load i32, ptr @proto_ngap, align 4
  %13 = call ptr @register_dissector_table(ptr noundef @.str.10, ptr noundef @.str.3457, i32 noundef %12, i32 noundef 7, i32 noundef 1)
  store ptr %13, ptr @ngap_ies_dissector_table, align 8
  %14 = load i32, ptr @proto_ngap, align 4
  %15 = call ptr @register_dissector_table(ptr noundef @.str.3458, ptr noundef @.str.3459, i32 noundef %14, i32 noundef 7, i32 noundef 1)
  store ptr %15, ptr @ngap_ies_p1_dissector_table, align 8
  %16 = load i32, ptr @proto_ngap, align 4
  %17 = call ptr @register_dissector_table(ptr noundef @.str.3460, ptr noundef @.str.3461, i32 noundef %16, i32 noundef 7, i32 noundef 1)
  store ptr %17, ptr @ngap_ies_p2_dissector_table, align 8
  %18 = load i32, ptr @proto_ngap, align 4
  %19 = call ptr @register_dissector_table(ptr noundef @.str.9, ptr noundef @.str.3462, i32 noundef %18, i32 noundef 7, i32 noundef 1)
  store ptr %19, ptr @ngap_extension_dissector_table, align 8
  %20 = load i32, ptr @proto_ngap, align 4
  %21 = call ptr @register_dissector_table(ptr noundef @.str.11, ptr noundef @.str.3463, i32 noundef %20, i32 noundef 7, i32 noundef 1)
  store ptr %21, ptr @ngap_proc_imsg_dissector_table, align 8
  %22 = load i32, ptr @proto_ngap, align 4
  %23 = call ptr @register_dissector_table(ptr noundef @.str.12, ptr noundef @.str.3464, i32 noundef %22, i32 noundef 7, i32 noundef 1)
  store ptr %23, ptr @ngap_proc_sout_dissector_table, align 8
  %24 = load i32, ptr @proto_ngap, align 4
  %25 = call ptr @register_dissector_table(ptr noundef @.str.13, ptr noundef @.str.3465, i32 noundef %24, i32 noundef 7, i32 noundef 1)
  store ptr %25, ptr @ngap_proc_uout_dissector_table, align 8
  %26 = load i32, ptr @proto_ngap, align 4
  %27 = call ptr @register_dissector_table(ptr noundef @.str.14, ptr noundef @.str.3466, i32 noundef %26, i32 noundef 26, i32 noundef 0)
  store ptr %27, ptr @ngap_n2_ie_type_dissector_table, align 8
  %28 = load i32, ptr @proto_ngap, align 4
  %29 = call ptr @prefs_register_protocol(i32 noundef %28, ptr noundef @apply_ngap_prefs)
  store ptr %29, ptr %1, align 8
  %30 = load ptr, ptr %1, align 8
  call void @prefs_register_bool_preference(ptr noundef %30, ptr noundef @.str.3467, ptr noundef @.str.3468, ptr noundef @.str.3469, ptr noundef @ngap_dissect_container)
  %31 = load ptr, ptr %1, align 8
  call void @prefs_register_bool_preference(ptr noundef %31, ptr noundef @.str.3470, ptr noundef @.str.3471, ptr noundef @.str.3472, ptr noundef @ngap_disable_nrppa_encapsulation)
  %32 = load ptr, ptr %1, align 8
  call void @prefs_register_enum_preference(ptr noundef %32, ptr noundef @.str.3473, ptr noundef @.str.3474, ptr noundef @.str.3475, ptr noundef @ngap_dissect_target_ng_ran_container_as, ptr noundef @ngap_target_ng_ran_container_vals, i1 noundef zeroext false)
  %33 = load ptr, ptr %1, align 8
  call void @prefs_register_enum_preference(ptr noundef %33, ptr noundef @.str.3476, ptr noundef @.str.3477, ptr noundef @.str.3478, ptr noundef @ngap_dissect_lte_container_as, ptr noundef @ngap_lte_container_vals, i1 noundef zeroext false)
  %34 = call i32 @register_tap(ptr noundef @.str.56)
  store i32 %34, ptr @ngap_tap, align 4
  call void @llvm.lifetime.end.p0(i64 8, ptr %2) #11
  call void @llvm.lifetime.end.p0(i64 8, ptr %1) #11
  ret void
}