; Function Attrs: null_pointer_is_valid sspstrong uwtable
define hidden void @proto_register_ngap() local_unnamed_addr #0 {
  %1 = tail call i32 @proto_register_protocol(ptr noundef nonnull @.str.3455, ptr noundef nonnull @.str.57, ptr noundef nonnull @.str.56)
  store i32 %1, ptr @proto_ngap, align 4
  tail call void @proto_register_field_array(i32 noundef %1, ptr noundef nonnull @proto_register_ngap.hf, i32 noundef 1690)
  tail call void @proto_register_subtree_array(ptr noundef nonnull @proto_register_ngap.ett, i32 noundef 920)
  %2 = load i32, ptr @proto_ngap, align 4
  %3 = tail call ptr @expert_register_protocol(i32 noundef %2)
  tail call void @expert_register_field_array(ptr noundef %3, ptr noundef nonnull @proto_register_ngap.ei, i32 noundef 2)
  %4 = load i32, ptr @proto_ngap, align 4
  %5 = tail call ptr @register_dissector(ptr noundef nonnull @.str.56, ptr noundef nonnull @dissect_ngap, i32 noundef %4)
  store ptr %5, ptr @ngap_handle, align 8
  %6 = load i32, ptr @proto_ngap, align 4
  %7 = tail call ptr @register_dissector(ptr noundef nonnull @.str.3456, ptr noundef nonnull @dissect_ngap_media_type, i32 noundef %6)
  store ptr %7, ptr @ngap_media_type_handle, align 8
  %8 = load i32, ptr @proto_ngap, align 4
  %9 = tail call ptr @register_dissector_table(ptr noundef nonnull @.str.10, ptr noundef nonnull @.str.3457, i32 noundef %8, i32 noundef 7, i32 noundef 1)
  store ptr %9, ptr @ngap_ies_dissector_table, align 8
  %10 = load i32, ptr @proto_ngap, align 4
  %11 = tail call ptr @register_dissector_table(ptr noundef nonnull @.str.3458, ptr noundef nonnull @.str.3459, i32 noundef %10, i32 noundef 7, i32 noundef 1)
  store ptr %11, ptr @ngap_ies_p1_dissector_table, align 8
  %12 = load i32, ptr @proto_ngap, align 4
  %13 = tail call ptr @register_dissector_table(ptr noundef nonnull @.str.3460, ptr noundef nonnull @.str.3461, i32 noundef %12, i32 noundef 7, i32 noundef 1)
  store ptr %13, ptr @ngap_ies_p2_dissector_table, align 8
  %14 = load i32, ptr @proto_ngap, align 4
  %15 = tail call ptr @register_dissector_table(ptr noundef nonnull @.str.9, ptr noundef nonnull @.str.3462, i32 noundef %14, i32 noundef 7, i32 noundef 1)
  store ptr %15, ptr @ngap_extension_dissector_table, align 8
  %16 = load i32, ptr @proto_ngap, align 4
  %17 = tail call ptr @register_dissector_table(ptr noundef nonnull @.str.11, ptr noundef nonnull @.str.3463, i32 noundef %16, i32 noundef 7, i32 noundef 1)
  store ptr %17, ptr @ngap_proc_imsg_dissector_table, align 8
  %18 = load i32, ptr @proto_ngap, align 4
  %19 = tail call ptr @register_dissector_table(ptr noundef nonnull @.str.12, ptr noundef nonnull @.str.3464, i32 noundef %18, i32 noundef 7, i32 noundef 1)
  store ptr %19, ptr @ngap_proc_sout_dissector_table, align 8
  %20 = load i32, ptr @proto_ngap, align 4
  %21 = tail call ptr @register_dissector_table(ptr noundef nonnull @.str.13, ptr noundef nonnull @.str.3465, i32 noundef %20, i32 noundef 7, i32 noundef 1)
  store ptr %21, ptr @ngap_proc_uout_dissector_table, align 8
  %22 = load i32, ptr @proto_ngap, align 4
  %23 = tail call ptr @register_dissector_table(ptr noundef nonnull @.str.14, ptr noundef nonnull @.str.3466, i32 noundef %22, i32 noundef 26, i32 noundef 0)
  store ptr %23, ptr @ngap_n2_ie_type_dissector_table, align 8
  %24 = load i32, ptr @proto_ngap, align 4
  %25 = tail call ptr @prefs_register_protocol(i32 noundef %24, ptr noundef nonnull @apply_ngap_prefs)
  tail call void @prefs_register_bool_preference(ptr noundef %25, ptr noundef nonnull @.str.3467, ptr noundef nonnull @.str.3468, ptr noundef nonnull @.str.3469, ptr noundef nonnull @ngap_dissect_container)
  tail call void @prefs_register_bool_preference(ptr noundef %25, ptr noundef nonnull @.str.3470, ptr noundef nonnull @.str.3471, ptr noundef nonnull @.str.3472, ptr noundef nonnull @ngap_disable_nrppa_encapsulation)
  tail call void @prefs_register_enum_preference(ptr noundef %25, ptr noundef nonnull @.str.3473, ptr noundef nonnull @.str.3474, ptr noundef nonnull @.str.3475, ptr noundef nonnull @ngap_dissect_target_ng_ran_container_as, ptr noundef nonnull @ngap_target_ng_ran_container_vals, i1 noundef zeroext false)
  tail call void @prefs_register_enum_preference(ptr noundef %25, ptr noundef nonnull @.str.3476, ptr noundef nonnull @.str.3477, ptr noundef nonnull @.str.3478, ptr noundef nonnull @ngap_dissect_lte_container_as, ptr noundef nonnull @ngap_lte_container_vals, i1 noundef zeroext false)
  %26 = tail call i32 @register_tap(ptr noundef nonnull @.str.56)
  store i32 %26, ptr @ngap_tap, align 4
  ret void
}